ccopy_reg
_reconstructor
p0
(clrsgd
LogisticRegressionSGD
p1
c__builtin__
object
p2
Ntp3
Rp4
(dp5
Veta
p6
F0.05
sVweight
p7
(lp8
F-0.09999998025292932
aF0.0
aF0.0
aF-0.04999971859057498
aF-0.049999999999996374
aF-0.643961186876475
aF-0.09858914319667254
aF-0.17569648057586795
aF-0.1499999999999999
aF3.580561847016384e-10
aF-0.24999931952180876
aF-0.023538847304380953
aF-0.04999393790674554
aF-0.14964462977651766
aF0.0
aF-0.14999999995680083
aF-0.09999948396182645
aF-0.04997485678637611
aF-0.0749998181501319
aF0.0
aF-0.2999837951309242
aF-0.05
aF-0.046871964310192686
aF-0.027460743171376353
aF-0.16807315150036276
aF-0.049999999999976195
aF7.812999136547205e-11
aF-0.07523460396652382
aF-0.03656125398287595
aF-0.04999999999999323
aF4.019007349143067e-15
aF-0.02361360842927208
aF-0.09999999999998938
aF-0.44328528777989556
aF-0.06583344727885282
aF-0.09927400794619852
aF0.0
aF0.0
aF-0.05
aF-0.05
aF-0.05
aF-0.1492955385461841
aF-0.24687196431011724
aF-0.04999758912189681
aF0.00016125595513252766
aF-0.05
aF-0.05
aF-0.04999997892650511
aF-0.04999999999999998
aF-0.049999717784842426
aF-0.035174351137076273
aF-0.046362222024283334
aF-0.1994733478964842
aF-0.04533851407000333
aF-0.19983247834669465
aF-0.09996669652971663
aF-0.3739481304358079
aF-0.29759741536474726
aF9.2148511043888e-15
aF-0.13566293032600396
aF0.22606718554095337
aF-0.19983874028222126
aF-0.5945317286836731
aF-0.06945561843251172
aF-0.004250942537429753
aF-0.049999999317698954
aF-0.05
aF0.0
aF0.0
aF-0.2392017261096555
aF-0.3492507385603172
aF-0.09999996191153138
aF-0.05
aF-0.07499989267837226
aF2.220446049250313e-16
aF0.23440053554095336
aF-0.09999999999999021
aF0.055709588692738135
aF-0.027439569193147405
aF3.390085286159028e-07
aF0.0
aF-0.05
aF-0.04695288057060291
aF-0.04828166005317317
aF-0.04999393790674554
aF-0.14999983690512186
aF-0.14999999461141245
aF-0.09999999999999667
aF0.0
aF-0.04968356669493953
aF0.11834630134278253
aF-0.04951472186442731
aF0.0
aF-0.399999573822292
aF-0.44707102782722996
aF-0.04790224908416055
aF-0.09999693086816579
aF0.0
aF0.03425418442496414
aF-0.09999993606287796
aF-0.09999999719961056
aF-0.046871964310192686
aF-0.23325293700360494
aF0.0
aF-0.049999999998067673
aF-0.14999999989777865
aF-0.883441261841533
aF-0.04999999999999957
aF-0.047284548698358006
aF-0.02529376643560993
aF-0.04999999999999941
aF-0.09901279903354257
aF-0.14767437714061282
aF0.10694573479088632
aF0.0
aF0.0
aF-0.5801425760015968
aF-0.04999999999476543
aF-0.09999999994660257
aF-0.24882257774292854
aF-0.19991100623523864
aF-0.44734732743343913
aF-0.45501350082372555
aF0.0
aF-0.12229329292768565
aF-0.049999995406540654
aF-0.05
aF-0.04467117143387252
aF0.0
aF4.877112091961067e-09
aF-0.09827559795991872
aF-0.04790224908416055
aF-0.35074632281820983
aF-0.03789328438093751
aF-0.05
aF-0.1124669561136458
aF-0.049425099327717575
aF0.0
aF-0.011737098769380267
aF-0.05
aF-0.5448109337078536
aF-0.1268144806600947
aF-0.24768806043106883
aF-0.049995557451021626
aF-0.04999999930051629
aF-0.3777321861102906
aF-0.03393250920527715
aF-0.6264445228175675
aF0.0
aF-0.04999997041179347
aF-0.04031243796980529
aF0.0
aF0.0002738096722429695
aF-0.05
aF-0.18290355171881348
aF-0.14998685505122528
aF-0.22499998092024515
aF0.0
aF-0.14142297034215842
aF-0.09999262978395998
aF-0.02613582139409795
aF-0.05
aF-0.5091243347324532
aF-0.049999483961826456
aF-0.09999999987347165
aF-0.3359076414208401
aF-0.05
aF-0.034683431715159654
aF-0.04999991251317518
aF-0.026353341717638302
aF-0.04999994244546474
aF-1.0372094036915012
aF-0.1450510917869408
aF-0.04999996291092867
aF-0.09999999999981296
aF-0.14975317671656008
aF-0.049831408748066436
aF-0.259274771591239
aF-0.2039119067009089
aF-0.04949937751131999
aF-0.14467778770481238
aF-0.1
aF3.390085286159028e-07
aF-0.39259850123603945
aF0.46375991103564207
aF-0.149490471066754
aF-0.04757588863320392
aF-0.09999999999999977
aF-0.6699446882876988
aF-0.06424576035036765
aF-0.1
aF-1.3093327651224125
aF-0.02683624124236707
aF-0.5997198266203709
aF-0.02613582139409795
aF-0.289290157752887
aF-0.09972694273536459
aF0.0
aF0.4075848389679192
aF-0.15000000000000002
aF-0.0003287759287661507
aF-0.0833333495336773
aF0.0780526626069768
aF-0.04983001637110404
aF-0.04999968824835411
aF-0.04861731764973374
aF-0.09998875899442497
aF-0.05
aF-0.05
aF-0.09201880363845763
aF-0.049567045497745404
aF-0.004108851193541952
aF-0.05
aF-0.19870712930207546
aF-0.03374331080175933
aF1.0221938531745912e-05
aF-0.04999922139232031
aF-0.09999999999997593
aF-0.4999503342448067
aF-0.20657838235129344
aF-0.398243347876628
aF-0.15460930196703082
aF-0.049994621152497455
aF0.18860028226059655
aF-0.04921697773377065
aF-0.05
aF-0.12000775926368512
aF-0.4790908781675525
aF-0.22815499747677526
aF-0.04977568950695249
aF-0.14981617361677915
aF-0.04999999999999836
aF0.0
aF0.0
aF2.220446049250313e-16
aF-0.04861731764973374
aF-0.04999977852897522
aF-0.04998763283063769
aF-0.03531428378168299
aF-0.01827627741223946
aF-0.09999999999980858
aF-0.0487356327362895
aF-0.07270716796331189
aF0.05233383544858281
aF-0.0814049744346809
aF0.0004333165566621722
aF-1.012866462051984
aF0.0
aF-0.39998060629842014
aF-0.049999999995528524
aF-0.0825264390720851
aF-0.0499999977300951
aF0.05051528821377203
aF-0.04999952322522275
aF-0.0999999999998947
aF3.957628669226665e-11
aF-0.3382120495788924
aF-0.0002627729446738891
aF-0.007071068818624038
aF-0.19847067207215613
aF-0.1
aF-0.05
aF-0.05
aF-0.03841143531520931
aF-0.49860137660909004
aF-0.05
aF-0.09993265221597435
aF-0.09999999999920978
aF-0.04904405727820792
aF-0.05
aF-0.4399610379133584
aF-0.024131719978134042
aF-0.04365313420926331
aF-0.09999670947796946
aF-0.09875909585087002
aF-0.14391106140493978
aF0.0
aF-0.04999994188615551
aF-0.05
aF-0.04336221106726834
aF0.0
aF-0.11666363637875862
aF-0.49882843637688573
aF0.0
aF-0.198151813721238
aF-0.048190675831182396
aF-0.0838836605882437
aF-0.05
aF-0.09988469831989515
aF-0.0394014287406661
aF0.0
aF3.848406022978757e-05
aF9.914443961478448e-07
aF-0.09999918948126567
aF-0.05
aF-0.19692736770425345
aF-0.05
aF-0.04999999999999079
aF-0.024609207768618715
aF-0.3489194027817466
aF-0.08879410295703895
aF0.0
aF-0.04999999997137945
aF-0.1221615958965403
aF-0.04990471795552423
aF-0.04999922139232031
aF-0.3245684756713725
aF-0.049338739102438654
aF0.0
aF9.2148511043888e-15
aF3.873235066009784e-13
aF-0.18805721195308495
aF-0.05
aF-0.04999657352501714
aF-0.09868665298860566
aF0.18817708491358195
aF-0.09531569874816792
aF-0.18650895441176096
aF-0.09984590766047693
aF0.0
aF-0.05
aF-0.09999998790085421
aF-0.09841738280412252
aF-0.05
aF-0.4334600114344357
aF-0.07523576491031247
aF-0.14052092364623
aF-0.14999999998263489
aF-0.049338739102438654
aF-0.2499981497116785
aF0.0
aF-0.07490796697859291
aF-0.049383830150718726
aF-0.049999999958427244
aF-0.02419731720125498
aF-1.6292270063206147
aF-0.14229530075114052
aF-0.18526722161566256
aF-0.09994609693067368
aF-0.14999926463332747
aF-0.05
aF-0.049980231976144714
aF0.0
aF0.0003227893516883851
aF-0.09999999999999998
aF-0.08841143531520931
aF-0.09673156308856234
aF-0.07175706498851256
aF-0.3499630076705733
aF-0.24995510457409065
aF-0.5462103130454429
aF-0.5474323761125345
aF-0.05
aF0.0
aF-0.049567045497745404
aF-0.02801809071139392
aF-0.9981927094612852
aF-0.08352520953559582
aF-0.02889738730115203
aF-0.04999977852897522
aF-0.09998862310478139
aF-0.14992956227679102
aF-0.4760925935052607
aF-0.05
aF-0.04999968824835411
aF0.0
aF-0.05
aF-0.19998350889079472
aF9.686730866254046e-06
aF0.0
aF-1.2423319173818175
aF-0.4776864140977841
aF-0.14992000890535628
aF-0.0881489558348224
aF-0.05
aF-0.09999999999999985
aF-0.05
aF-0.05
aF-0.049997222294229544
aF-0.0016155524922643494
aF-0.005024032190916583
aF-0.09229530075114054
aF9.49489056611408e-06
aF-0.19933070817331566
aF-0.1393017201681087
aF-0.19588506272532938
aF3.629015290761206
aF-0.24199316941125426
aF0.0
aF-0.149920465086276
aF-0.05
aF-0.049999999999997484
aF-0.05
aF0.0
aF-0.5846164537545091
aF0.013569676260564746
aF-0.042242486273641904
aF-0.24301895260142403
aF-0.0958786899574684
aF-0.19999970192701938
aF-0.049999999958427244
aF-0.1481906758311583
aF-0.049383830150718726
aF0.0
aF-0.29953031399795016
aF-0.09622459598121477
aF-0.0489703611862981
aF-0.39474306843775436
aF0.0
aF0.0
aF0.0
aF-0.19906269059283216
aF-0.05
aF-0.09992453932824169
aF-0.09999999999364562
aF-0.24999657493970265
aF-0.19992455943269266
aF0.0008038595783967429
aF-0.8640340962932728
aF-0.04279356502286589
aF-0.1473168115778007
aF-0.09999994315222124
aF-0.04999968824835411
aF4.591296636058395e-06
aF3.33066907387547e-17
aF0.0
aF0.02174682340113239
aF-0.8214519141227876
aF-0.43277116257174375
aF-0.5638837985373714
aF-0.08356279655339868
aF-0.049999999999974
aF-0.048190675831182396
aF-0.14999994713769055
aF-0.0024617756511208125
aF-0.1
aF-0.04999998266364598
aF-0.14999966771119466
aF-0.44949431873124224
aF-0.01679848912143383
aF-0.14999797662943687
aF-0.174754361931101
aF-0.04978167463379238
aF-0.048277333286163605
aF-0.8509327428893709
aF-0.05
aF-0.14999999750436915
aF-0.39474306843775436
aF-0.05
aF0.1554425722885326
aF-0.1454943380694761
aF-0.0997343982658894
aF-0.5727565093986801
aF-0.24983874273427925
aF-0.002183168375895128
aF-0.0035392813599415874
aF-0.05
aF-0.5286193636461485
aF0.00024804174086454637
aF-0.14731042821707657
aF6.0268604445884444e-05
aF-0.04998546576869342
aF0.0
aF-0.19798921079820236
aF-0.05
aF-0.09990835490381952
aF-0.1499996233784951
aF-0.5805361615377411
aF-0.1302721139054226
aF0.0
aF-0.11402698505152165
aF-0.049600983061815346
aF-0.24984116838059134
aF0.0
aF-0.046337401021075905
aF-0.09982451250030079
aF-0.09999884130213146
aF-0.09993105895794553
aF-0.14973057513148344
aF-0.049999245425713934
aF0.0
aF-0.04999086387546283
aF-0.05
aF-0.09999670916922274
aF-0.14975165212924246
aF-0.0999999564440611
aF-0.3499979322012484
aF-0.07066816956257665
aF-0.1351794545442371
aF-0.05217131299978284
aF-0.14973389328375705
aF-0.09999999546606456
aF-0.09999698637875863
aF-0.09999979736792963
aF0.0
aF-0.04988831928120521
aF0.10193381161579085
aF-0.05
aF-0.09999086383389008
aF-0.04999999614439543
aF-0.4883824585447646
aF-0.0007377546196439988
aF-0.06973596810439008
aF-0.2989586787069938
aF-0.18609843660196917
aF2.790032785845997e-07
aF-0.18473949954867652
aF0.1849253883451918
aF-0.1999999974681831
aF-0.05
aF1.2164741788334155e-07
aF-0.24627256655732266
aF-0.0499999999995175
aF-0.04999952871724633
aF-0.0016398263436286865
aF-0.05
aF-0.04999968824835411
aF-0.05
aF-0.05
aF-0.05
aF-0.1175055816303869
aF-0.77347266837493
aF-0.7800551096854087
aF-0.29739305574840036
aF-0.29949364577380005
aF-0.2498620347771648
aF-0.563374072782653
aF-0.05
aF-0.01643101527660461
aF-0.14897036118629808
aF-0.04999968824835411
aF-0.049606339691365346
aF-0.04999999999971752
aF-0.0999646823392009
aF0.3185035538413611
aF-0.09999545575348016
aF-0.2992957617592785
aF-0.09999765003964203
aF-0.04999999988217442
aF-0.27125352858543955
aF-0.09999996465095815
aF-0.33875483785777694
aF-0.09999999999969209
aF0.0
aF-0.012346201371117577
aF-0.049648237555698436
aF-0.2333976859026609
aF0.0
aF-0.09993105895790241
aF-0.19832711777837464
aF-0.22050844357344745
aF-0.09683540904383589
aF0.0
aF0.0
aF-0.1475413027960602
aF-0.2889892778027941
aF-0.1996338747697875
aF-0.04969201197963755
aF-0.04999939630981472
aF-0.29959588419370786
aF-0.05
aF-0.04999999999283923
aF-0.7388670209373198
aF0.9953215791661676
aF-0.06657522718095941
aF-1.2317195831545875
aF-0.16401514720283503
aF-0.05
aF-0.2822714363606426
aF-0.07307217870342285
aF-0.14144807280972477
aF-0.0365770343508229
aF-1.418298219036431
aF-0.04999968824835411
aF-0.05
aF-0.0999999893965515
aF-0.09999999999995207
aF0.0
aF-0.23220205589470744
aF-0.3572970910977442
aF-0.17484528688859619
aF0.0
aF-0.15914538061653105
aF0.0
aF-0.24992898794411336
aF-0.14894778634748831
aF-0.14956058520651694
aF-0.296708257866573
aF-0.04959050313286657
aF-0.171192030267899
aF-0.08886935729018346
aF-0.04999999516888098
aF-0.046280210666665274
aF-0.05
aF-0.3498159561402943
aF-0.05
aF-0.27928368689306526
aF1.073866350123231
aF-0.05
aF-0.04982006403170161
aF-0.049997674368725646
aF-0.19531240132666197
aF-0.05
aF-0.04722608434664429
aF-0.1668742249643855
aF-0.35731722859108755
aF-0.6999622981645778
aF0.06371410097552324
aF-0.04998508118883052
aF-0.05
aF-0.1499996677109705
aF-0.09917902328505558
aF-0.6688892994814569
aF0.004272653936079701
aF-0.4723157482854284
aF-0.032260815290357285
aF-0.08333334999999993
aF-0.049998084014691566
aF-0.021833250597556232
aF-0.030445238654581402
aF-0.049999999999999246
aF-0.14999999999999264
aF-0.0499999965341644
aF-0.1381045522399404
aF-0.04999999999998705
aF-0.05
aF0.7309644453826712
aF-0.04999899689955267
aF-0.0499999998558178
aF-0.4879164056048625
aF-0.014922866925507773
aF-0.22399457199049316
aF-0.11197670616132246
aF-0.29539545114853205
aF-0.0780479744881524
aF-0.04998733675205606
aF1.5543122344752193e-16
aF-0.09999996655413866
aF3.3790243880726937e-09
aF-0.04999999999976329
aF-0.02361480359656588
aF7.727706159577076e-06
aF-0.04999999998438938
aF-0.006423006407780003
aF-0.03749999284689218
aF0.31126651899607255
aF-0.04918025001149062
aF-0.23416541909654948
aF-0.5323730779551089
aF-0.026405564313428352
aF-0.29776864251183344
aF-0.015097765635688876
aF-0.07222621867388027
aF-0.1773561322301831
aF-0.1390831714005742
aF-0.04999999998297884
aF-0.14205990936915436
aF-1.018209203800357
aF0.008482235442354503
aF-0.19600524857979812
aF-0.7898665421303375
aF-0.44222778426652276
aF-0.09934568911993358
aF-0.04200712798778386
aF-0.14996896236603136
aF-0.005292046459274136
aF-0.20499953432612605
aF-0.07499999999980675
aF-0.4975869911484095
aF-1.9726619254034248
aF8.682872199017312e-11
aF0.0
aF0.008482235442354503
aF-0.29200978216845774
aF-0.15250515416441426
aF2.5916061828779037e-07
aF-0.09999999767561518
aF-0.26978280131445265
aF-0.05
aF-0.19884604508347842
aF0.0
aF9.648078058699383e-10
aF-0.24951461382854595
aF-0.04987281095222792
aF-0.04999917708665536
aF-0.09999891071160538
aF-0.646591801634684
aF-0.2499999979783598
aF-1.2020844292588637
aF-0.3495136998881881
aF0.0
aF0.0
aF0.0
aF-0.15177408828065247
aF-0.2859355538186173
aF-0.9379513663916997
aF-4.961847792519251
aF-0.05
aF-0.04999999854985199
aF-0.14999999854985185
aF-0.04999999731050228
aF-0.049999999998714975
aF-0.15092773336927506
aF-0.04998508118883052
aF4.180940536002709e-08
aF-0.05
aF-0.19860964167243295
aF-0.0405024415536955
aF-0.5950894646580087
aF0.0
aF-0.18584151021722095
aF-0.1499999986817927
aF-0.05
aF-0.8499973962500735
aF-0.09987344013497378
aF-0.04999999999248821
aF-0.04999999924471047
aF-0.09999999246763511
aF-0.0002627729446738891
aF-0.07160161688547778
aF-0.024999096578460445
aF-0.09834782018276036
aF0.004620698124548284
aF-0.003162036524459333
aF-0.9152279947916467
aF-0.04997815029981346
aF0.02558826305029408
aF-0.07411841328097771
aF0.014324943537953229
aF-0.1499992175540839
aF-0.0999999999999916
aF-0.004828438616340398
aF-0.04999916016538684
aF-0.11699756734980496
aF-0.049323584343325975
aF-0.5828720558469916
aF-0.0999882243636793
aF-0.09904405727297336
aF-0.24999998253242067
aF-0.26930479299573157
aF-0.06361464074213743
aF-0.29707686762234103
aF-0.06967759206807701
aF-0.4983643598377424
aF-0.049853412536266864
aF-0.7475319343555898
aF4.661240292287506
aF-0.04952080012620769
aF-0.036520956113109966
aF0.0
aF-0.09999999999988621
aF-0.04986477745159981
aF-0.12831483043709796
aF-0.29810464384678675
aF-0.24998811796354176
aF-0.04999999999999164
aF-0.02815500104762443
aF-0.049567045497745404
aF-0.14929645633549193
aF-0.799576625840155
aF-0.13180020739057538
aF-0.09987259526923659
aF0.0
aF-0.049996019645976775
aF-0.10074206893010006
aF-0.1496062810836928
aF-0.09999985279086225
aF-0.0026832267862514523
aF-0.19912727535978886
aF-0.1493914535728637
aF0.004694572143653198
aF-0.00407361624806501
aF-1.2447434584983748
aF0.005432655158229893
aF-0.09999999237393158
aF-0.05
aF-0.712015534004556
aF-0.8995341676905874
aF-0.2269311290687625
aF-0.05
aF-0.4997803927443736
aF-0.02486962812624765
aF-0.07628232419378894
aF-0.24341958728025953
aF-0.24999999999999073
aF0.0
aF-0.4230688704796539
aF-0.19999935421114548
aF-0.04826747599584679
aF-0.6917633187449105
aF-3.548310411529261
aF-0.05
aF-0.5208709435529193
aF-1.2883580405508033
aF0.2651752084319332
aF-0.09999999999999884
aF-0.7874761523877097
aF2.2781776465308214e-14
aF-0.04997428272084897
aF0.00040351818419122614
aF-0.0918850025928155
aF-0.05
aF0.0
aF-0.011827516090148638
aF-0.04999797685940113
aF-0.050243081442540444
aF-0.09999997138886382
aF-0.034208719912807384
aF-0.24971021283835104
aF-0.049999677811617495
aF-0.09991934407342226
aF-0.4964261543678784
aF-0.049383830150718726
aF-0.13215536326051938
aF-0.09996692302406773
aF-0.6495058333445793
aF-0.21386185795463583
aF-0.9204695570720327
aF-1.1884072808115838
aF-0.17648590175996604
aF0.2719227552792099
aF-0.29906555665110335
aF-0.14884704237070256
aF0.0
aF-0.1569328567876749
aF-0.07498507212838403
aF-0.04960778519179642
aF-0.04999999975230508
aF-0.00907379269109127
aF-1.2457788103545144
aF-0.0999999980503655
aF-0.049999992163872686
aF-0.04564329610011431
aF-0.04974572196117247
aF-0.29537880619595785
aF-0.05
aF-0.4388168296966424
aF-0.05
aF-0.05
aF-0.09999999986153554
aF-0.14999999218123117
aF-0.04999999999999997
aF-0.1709909563209924
aF-0.09999757535638149
aF-0.09980846176939184
aF0.0
aF-0.28706673147347955
aF-0.8049089248830005
aF0.0
aF-0.38187634889641303
aF-0.09875962658784435
aF-0.15920674338632318
aF-0.6631317099433727
aF-0.09995448623196136
aF-0.69823803679455
aF-0.09998294749687307
aF-0.9965474513485598
aF-0.09999987324940404
aF-0.025
aF-0.07464776927314368
aF0.5482855692332114
aF-0.19993034628569728
aF-0.26009721497300947
aF-0.04537646988998415
aF-0.08765229187578459
aF2.7015464438929
aF-0.9439137947301393
aF-0.1599787193169498
aF-0.05
aF7.322693407918468e-06
aF-0.07182248821884384
aF-0.42269227448671576
aF-0.05
aF0.8388513755709907
aF-0.09765079535370494
aF0.0
aF-0.1615820326298965
aF0.0
aF-0.18242680037953637
aF-0.04999999999999997
aF-1.1964781865383896
aF-0.19913163163488545
aF-0.05
aF-0.04969462980044199
aF0.0
aF0.0
aF-1.0561045767625812
aF-0.22308535370580326
aF-0.19001020166437926
aF-0.06314277084604783
aF-0.018186201360838712
aF-1.2633323699792358
aF-2.419773222494706
aF0.11018189270461902
aF-0.05
aF-1.8332750779704454
aF-1.0164338562953528
aF-0.3473933726526129
aF0.0
aF-0.0749905248582034
aF-0.37646315903538374
aF-0.04905597083838673
aF-0.04999921495892069
aF-0.049999999999999226
aF-0.04999837773761709
aF-0.12485918788304662
aF-0.04999951316009282
aF-0.12552574207932127
aF-0.07895810476012552
aF-0.049598890084848926
aF-0.1282984895115935
aF-0.028860774980499763
aF-0.02740555398850817
aF-0.05
aF-0.049999999992529603
aF-0.024999998310487805
aF1.626474655628263e-05
aF-0.04978400569048215
aF0.0
aF-0.049920937962895574
aF-0.09994325390939529
aF-0.4929577916404953
aF-0.05
aF-0.09994977404496924
aF-0.08918891202640987
aF-0.0789581052657311
aF-0.376095745351399
aF-0.17469307826118458
aF-0.049831408748066436
aF0.0027015773473267946
aF-0.05
aF0.00011960856085592095
aF0.0
aF-0.042153182420631256
aF-0.04999979814343047
aF-0.14143923289669677
aF-0.5289016002410715
aF0.0
aF0.0
aF-0.02815500104762443
aF0.0
aF-0.19999053275957965
aF0.0
aF-0.39671928929110245
aF-0.5076406716074453
aF-0.29424869428260886
aF-0.07250760753570246
aF-0.11335870839058138
aF0.08890303944242495
aF0.08430368200769525
aF0.12867673404006116
aF-0.45519442379222336
aF2.2521525061547365e-08
aF0.0
aF0.0
aF-0.047031160245211034
aF-0.1498084865342458
aF0.0
aF-0.05
aF-0.11825996662905183
aF0.0
aF0.0028561666659704834
aF0.0
aF-0.02558595272811581
aF2.3514523661560817e-14
aF-0.042153182420631256
aF-0.03919376403629862
aF-0.04978400569048215
aF-0.04999406983491864
aF-0.897402194559348
aF-0.04999999999999838
aF-0.4192957588656862
aF-0.05833326384290263
aF-0.21001305457643846
aF-0.19622897600909334
aF-0.04995893255148451
aF-0.05
aF-0.0452740829434149
aF-0.049999867510360015
aF-0.09797886330253477
aF-0.0979008644768844
aF-0.04678221594134654
aF0.0
aF-1.027902506841613
aF-0.05
aF-0.14556006383459913
aF-1.2226618037210741
aF-0.030910977255164132
aF0.0
aF-0.19999483217357314
aF-0.04999999999999971
aF-0.17238765259203168
aF-0.14999997802719545
aF-0.012793969564695718
aF0.0
aF-0.04999999999999999
aF-0.2520675966318838
aF0.3369403107268725
aF-0.05
aF-0.017447891153387164
aF-0.09999629428155521
aF-0.03930187044504053
aF0.0005341703109666252
aF-0.004663457779244784
aF-0.27836944514063733
aF0.0
aF0.0
aF0.13044443151084248
aF-0.05
aF-0.39821585013163696
aF-0.09999999943175716
aF-0.6904377637783614
aF-0.09944802239391619
aF-0.049082733014391935
aF-0.31430494891186117
aF-0.04983704406999326
aF-0.049999804963246255
aF-0.23996091877820117
aF-0.0318107822781791
aF0.7559409182430672
aF-0.04999999999999999
aF-0.049999992163872686
aF-0.2497773821046395
aF-0.046362222024283334
aF-0.024999982622666256
aF-0.3626661663510994
aF-0.4578851114386314
aF0.0
aF-0.4498124745227177
aF-0.004098413973927284
aF-0.14999975500152818
aF0.32012332564931123
aF-0.2958981167261853
aF-0.04982006403170161
aF-0.21903133091662597
aF-0.08176660013597492
aF0.0
aF0.0
aF-0.1271272840696318
aF-0.05
aF0.0
aF-0.05
aF-0.049157182102896296
aF0.0
aF-0.14828165992664483
aF-0.0485080762349338
aF-0.3573203497227321
aF-0.087403543144284
aF-0.09999733123513459
aF-0.24870761010977838
aF-0.1317850355529575
aF-0.09933812066889068
aF-0.02622871612703881
aF-0.0499710808969844
aF-0.04998547967094447
aF0.0
aF-0.14977747104936417
aF-0.08393250920527714
aF8.682872199017312e-11
aF-0.3271409007200176
aF0.0
aF-0.04999999998889219
aF-0.09759184953967792
aF3.1534425291851466e-05
aF-0.0999998594609744
aF0.0
aF-0.04448900974061992
aF-0.0005944032293695945
aF-0.029754675626559347
aF-0.058770815051892925
aF-0.04999989097052654
aF-0.099955788597437
aF0.0
aF-0.049999999992529603
aF0.0
aF2.608155230676701e-09
aF-0.3360304568885358
aF-0.14608640068812945
aF-0.11717788579124859
aF-0.04999999204475147
aF-0.0383480717729853
aF-0.08504150406669335
aF-0.07254998553884942
aF-0.04999912656640125
aF-0.04999994188615551
aF-0.1493225130847216
aF0.05039267323573292
aF-0.0016155524922643494
aF-1.9722814863794516
aF-0.08352520953559582
aF-0.09999999992450169
aF-0.05
aF-0.12059346876089691
aF-0.09841738280412252
aF-0.048190675831182396
aF-0.05
aF-0.14976140567110893
aF-3.7572120417315267
aF-1.5123261168785747
aF-0.04354440258130121
aF-0.6083961845736282
aF0.0
aF-0.04999999999999999
aF-0.0996482273570978
aF0.055709588692738135
aF-0.0394014287406661
aF9.686730866254046e-06
aF-0.4498124745227177
aF-0.09759184953967792
aF-0.2306717059135206
aF-0.08090775775188089
aF-0.06058758734727994
aF-0.32819354704760945
aF-1.0798341738036468
aF-0.4319436407792251
aF0.0
aF-0.05759939977762419
aF-0.04911293177717526
aF-0.4830349948223714
aF-1.6485657399522302
aF-0.39449433084571767
aF-0.06798106908014223
aF-0.29200978216845774
aF-0.08597483012958801
aF-0.049490551826182116
aF-0.4996833273857347
aF6.289181514462783e-09
aF-0.09999999992187002
aF-0.04826747599584679
aF-0.16929593107594818
aF-0.49616414779412493
aF-0.12521736568667527
aF2.608155230676701e-09
aF-0.09858914319667254
aF-0.8066195311074604
aF-0.7387802880193087
aF0.10258982419490285
aF-0.049993357271174044
aF-0.2361771341538276
aF-0.12488500556877281
aF-0.852840488932544
aF0.0
aF0.0
aF-0.04983001637110404
aF-0.12975499655764777
aF-0.04999999795061518
aF-0.04999999995110049
aF-0.0383480717729853
aF-0.1650837588521086
aF0.0
aF-0.0499999499999989
aF-0.005606843878445134
aF-0.5453761208621377
aF-0.5249723591029556
aF0.0
aF-0.19999999883901234
aF-0.09999999719961056
aF-0.7493167197228002
aF-0.05
aF-0.05
aF-0.14999999218123117
aF0.0
aF0.07728382132735254
aF-0.3492507385603172
aF-0.05
aF-0.44734732743343913
aF-0.883441261841533
aF-0.45501350082372555
aF-0.3739481304358079
aF-0.09999999999980858
aF-0.14999999989777865
aF-0.5491128002875372
aF-0.24841610134873726
aF-0.1124669561136458
aF-0.06293467784433614
aF0.0
aF-0.04999977852897522
aF-0.04998546576869342
aF-0.04999922139232031
aF-0.04999999968594389
aF-0.049383830150718726
aF-0.04999952871724633
aF-0.09999986306784708
aF-0.05
aF-0.3664491947740958
aF-0.09938383015071872
aF-0.09999999999999667
aF-0.07307217870342285
aF-0.04467117143387252
aF-0.09999998790085421
aF-0.034495916806908215
aF-0.23325293700360494
aF-0.039922640275881945
aF0.0
aF-0.14946501659430686
aF-0.14999966771119466
aF-0.09999974924031091
aF-0.09951842489276944
aF-0.3249928929954744
aF-0.05
aF-0.03753111501119643
aF3.33066907387547e-17
aF-0.04999999999976329
aF-0.3664491947740958
aF3.1695305030554624e-08
aF-0.044825613194857984
aF-0.2218332206549044
aF-0.2574551528624325
aF-0.09999999999980858
aF-0.07304998832688228
aF-0.05
aF-0.048190675831182396
aF-1.1979582973443463
aF-0.09999999956253967
aF-0.09088667399808437
aF-0.05
aF-0.05
aF8.211639397030513e-05
aF0.0
aF-0.008758158675073319
aF-0.07905974750369534
aF-0.19320910490280102
aF-0.0468164870743618
aF-0.09904669117797966
aF0.0
aF-0.09999976814572985
aF-0.08920452734522281
aF-0.04881343882022067
aF-1.2226618037210741
aF-1.2883580405508033
aF-0.19829541444269982
aF-0.040758604351651406
aF-0.047647245918014114
aF-0.171192030267899
aF-1.6957409005442496
aF-0.05
aF-0.049998016500802114
aF-0.18587717307928542
aF-0.09999985279086225
aF-0.049999999999613465
aF-0.15827514735410594
aF0.0
aF-0.04999999614439543
aF-0.19543141518862883
aF-0.17463696327393016
aF0.0046857010042497425
aF-0.00199394524490748
aF-0.06814795442266881
aF0.0
aF-0.2431795786511879
aF-0.3708737693213966
aF-0.651073162281584
aF0.0
aF0.013901563398030399
aF-0.05
aF-0.14728746250169322
aF0.0
aF-0.04467117143387252
aF0.0
aF-0.04960778519179642
aF-0.14999975563949453
aF0.0
aF-0.04279356502286589
aF-0.09899111857966514
aF-0.05
aF-0.646591801634684
aF-0.01285445372252308
aF0.0
aF-0.1773561322301831
aF-0.16638001062564428
aF-0.7413710694424575
aF-0.6975950212402693
aF-0.7413710694424575
aF-0.13073918130882292
aF0.0
aF7.631400573859804e-07
aF-0.14999926463332747
aF0.0
aF-0.4292905113752029
aF-0.05
aF-0.04999999954397155
aF-0.05
aF-0.09999999999999748
aF-0.19959552464780023
aF-0.19320910490280102
aF-0.49860137660909004
aF0.0
aF-0.6495058333445793
aF-0.0859732293616069
aF-0.09954330751174126
aF-1.0798341738036468
aF-0.04958477131682823
aF-0.0999999999998947
aF3.3790243880726937e-09
aF0.0
aF-0.09999993956211733
aF-0.08238138418872212
aF-0.36875702906455765
aF-0.04998862310478139
aF-0.1599787193169498
aF-0.05
aF0.0
aF-0.04999999999993511
aF-0.09124347267473204
aF-0.12418554349020405
aF-0.14724973962290186
aF0.02894835990697286
aF4.180940536002709e-08
aF-0.1
aF-0.5945317286836731
aF-0.5004258198977583
aF-0.05
aF-0.04927398062205811
aF-0.008254415038303415
aF-0.0499999970179186
aF-0.09999999999364562
aF-0.041744784584430664
aF-0.018186201360838712
aF-0.15642300286860378
aF-0.28635254109693775
aF-0.1
aF-0.014922866925507773
aF0.0
aF-0.0499998732780246
aF-0.09951842489276944
aF0.0
aF-0.07499999999980334
aF0.0026029117473243104
aF-0.05
aF-0.04999893004367273
aF-0.4997803927443736
aF-0.24534380714177828
aF-0.0999991894812633
aF-0.3454290277637432
aF-0.046871964310192686
aF-0.04999999924471047
aF-0.14741806889623502
aF6.289181514462783e-09
aF-0.8640340962932728
aF-0.24992898794411336
aF-0.09999998554110492
aF-0.04999999964194382
aF0.0005341703109666252
aF0.00011960856085592095
aF-0.005024032190916583
aF-3.7757596841242598
aF-0.14907909756057655
aF-0.0499999977300951
aF-0.09999987890783801
aF0.0
aF-0.6009406048716943
aF-0.09730223560591565
aF0.0
aF-0.09987344013497378
aF-0.39735541968387467
aF-0.1386864442383643
aF-0.14956383328741843
aF-0.24534380714177828
aF0.0
aF0.009877962982449973
aF-0.7828367844699582
aF-0.1281042946040443
aF0.0
aF-0.19817421565538085
aF-0.04999837773761709
aF-0.14999999994668092
aF-0.1499887588913985
aF-0.07631340298912326
aF-0.1305739749349607
aF-0.24999999999999073
aF-0.04858483134329597
aF-0.14313562816378167
aF-0.14943566481944387
aF-0.2750583577814728
aF-0.049982213544285954
aF-0.05
aF-1.6341795040260834
aF3.445244090016786e-13
aF-0.04999999999997025
aF0.0
aF-0.04998957956550006
aF-0.36931564410118267
aF-0.12731400451446845
aF-0.14967004543533857
aF0.025000022588169392
aF-0.26965904481216735
aF-0.1756297401602419
aF-0.047530319606296896
aF-0.14992453935897657
aF-0.04999989097052654
aF-0.32150658072098187
aF-0.43753160356598014
aF-0.24999909700044054
aF-0.05
aF-0.1999995977271089
aF-0.049999982047440335
aF-0.24740311787526348
aF0.0
aF0.0
aF-0.13998222654745368
aF-0.049513297128321476
aF-0.3691981492586614
aF-0.9063405347276201
aF-0.24966179020186036
aF3.5946429827182774e-08
aF-0.16655518172417721
aF0.05021218054538559
aF-0.04978167453220131
aF0.0
aF-0.14954154022971394
aF-0.049999999999949446
aF-0.05
aF-0.04999999999992458
aF-0.04999999999999941
aF-0.0007108238824269086
aF-0.04999760255359614
aF-0.04999994188615551
aF0.002739734283738177
aF0.0
aF-0.22643825991024497
aF-0.047674377146536294
aF0.0
aF-0.05
aF-0.09999262978395998
aF-0.0499999958797599
aF-0.04999999999999996
aF-0.07631340298912326
aF-0.04999963023384772
aF8.70641000078054e-07
aF4.543862570471902e-06
aF-0.4130448080883635
aF-0.4859054827918606
aF0.4580315921897929
aF-0.18332852856536114
aF-0.29473440124107775
aF-0.2455784021958724
aF0.0
aF-0.1268144806600947
aF-0.048707986731283306
aF-0.02536619330277832
aF0.0
aF-0.5943912229932777
aF-0.4999133744689722
aF-0.054713853054507204
aF-0.006199815537757953
aF-0.04999952871724633
aF-0.0993836932185658
aF0.0
aF-0.0840597528467242
aF-0.07314309864375443
aF0.0
aF-0.04851245991703734
aF-0.19414474121353661
aF-0.852840488932544
aF0.0
aF-0.049999999999505954
aF0.5277562640257667
aF-0.0999782757864894
aF1.4019197106918127e-06
aF-0.049490551826182116
aF-0.04075860439432457
aF-0.04961151057250221
aF-0.06632429287624164
aF0.0
aF0.0
aF0.0
aF-1.3281498445500526
aF-0.02809252844783134
aF-0.00199394524490748
aF-0.22507837333518482
aF-0.09999994177761948
aF-0.05
aF-0.2290715839030899
aF-0.07624603744532808
aF-0.05
aF-0.023729933276003923
aF-0.14553896975280756
aF-0.5677416270025711
aF0.0
aF-0.04999979818494263
aF0.2033168494520163
aF-0.04999999999820542
aF-0.049835947416930176
aF-0.0994250992969827
aF-0.04999998993181961
aF-0.048190675831182396
aF-0.19987164899555807
aF-0.05
aF-0.02006877051601871
aF-0.15785098650467932
aF-0.04999657352501714
aF-0.8129929163332084
aF-0.09999999999999992
aF-0.14999900855560386
aF0.0
aF-0.046362222024283334
aF-0.19420937400823624
aF-1.4377743839431119
aF-1.181590852384958
aF-0.05
aF-0.02815500104762443
aF-0.02815500104762443
aF-0.24506385823989363
aF-0.049998798059436
aF-0.04999952871724633
aF-0.018186201360838712
aF-0.2982583464631992
aF0.0
aF-0.06058758734727994
aF-0.09907909756057655
aF0.0
aF-0.04999999999999999
aF-0.049907918000247464
aF-0.2819362448837086
aF-0.029059747503695332
aF-0.09999998950364686
aF-0.0657271099385443
aF-0.08918891259464906
aF-0.1280747361144456
aF-0.07304998832688228
aF0.0
aF-0.049999469811385415
aF-0.23662997896559249
aF-0.9121410501158527
aF-0.26614293981147635
aF-0.07500000000000001
aF-0.34340822551097355
aF-0.02499999999513073
aF-0.04740428944666494
aF-0.7501465617845748
aF-0.04075860439432457
aF0.0
aF-0.14959050484617767
aF-0.04999999999999998
aF-0.040957816037236985
aF-0.049999559047058384
aF-0.08386699580048881
aF2.4938530840956654e-07
aF-1.0798341738036468
aF-0.09904569687061048
aF0.0
aF-0.42249677465254487
aF-0.09999671058063306
aF-0.04980840918423366
aF0.0
aF-0.04999992493426569
aF-0.14997156814361903
aF-0.046298285460516335
aF-0.05
aF2.367182339035878e-09
aF-0.04999999999026146
aF-0.04999999992450169
aF-0.09999999999981007
aF-0.049999768449900936
aF-0.04717747235931172
aF-0.4651926217917128
aF-0.14999999999999983
aF0.0
aF-0.15645853660188053
aF-0.37484717336032797
aF-0.29032672674232324
aF-0.11897875423554986
aF-0.1975140500945956
aF-0.13792319699585037
aF-0.05
aF0.004693739785601853
aF-0.026372648953793393
aF-0.0485080762349338
aF-0.09249921350207882
aF-0.4393947629497918
aF0.3466586853832176
aF-0.049999999317698954
aF-0.14976070362414118
aF-0.13096383976878928
aF-0.04999999999999796
aF-0.24179973533331206
aF0.0
aF-0.1499336709448195
aF-0.09999998790085421
aF0.0
aF0.0
aF-0.06417137031964543
aF-0.004775760397859513
aF-0.09972619032775702
aF-0.19608618331696093
aF-0.014706247524652443
aF-0.08086045314939044
aF-0.03371786626652985
aF-0.04999733198690826
aF0.0
aF-0.6083961845736282
aF-0.05
aF-0.413417228658115
aF-1.040761503803646
aF0.0
aF0.0
aF0.0
aF-0.08250130909944357
aF-0.04842077512777945
aF-0.47842001392990785
aF-0.06666267707246414
aF-0.048395497860027586
aF-0.047359318721555715
aF-0.044175737597697495
aF-0.02815500104762443
aF-0.17297920896172392
aF-0.6279295896687948
aF-0.09994343032585747
aF-0.09995567173246434
aF0.002867757527599252
aF-0.04999922139232031
aF-0.04982006403170161
aF-0.049993357271174044
aF-2.3104898008139414
aF-0.049999995406540654
aF-0.09993460227664033
aF-0.8722866717339838
aF0.0
aF-0.008254415038303415
aF-0.04999952871724633
aF-0.1756297401602419
aF0.0
aF-0.04999491212436075
aF-0.049929996923042494
aF-0.09999987890783801
aF-0.14648486789623777
aF0.004302990042996074
aF0.0
aF0.0
aF-0.25170244466454633
aF-0.049999999999998414
aF-0.09999999956253967
aF0.0
aF-0.048047499537594476
aF-0.09968082217539004
aF-0.29471520671294427
aF-0.29875961008904534
aF-0.10576054751493283
aF-0.9363995397926774
aF-0.040460731014420936
aF-0.2671292060454107
aF-0.05
aF0.05000000006664433
aF-0.09687177959520088
aF-0.05
aF-0.04999999992927439
aF-0.04958477131682823
aF-0.36635105453359784
aF-0.0182178118675663
aF-0.14999439299886924
aF-0.11986838039067456
aF-0.09999999999988621
aF-0.5115547039152714
aF-0.23285014420405575
aF-0.04999999719999246
aF-0.23944037370018387
aF-0.04999999971303679
aF-0.09625063589163504
aF-0.09999808401469157
aF-0.22499958094332276
aF-0.1575993949465051
aF-0.048881421035906335
aF-0.03240075672846604
aF2.04878081722093e-09
aF-0.044728814412849
aF-0.08388366058824367
aF-0.09520638900046452
aF-0.04969462980044199
aF-0.6463656944317102
aF-0.04999912656640125
aF-0.08081600776745118
aF0.004620698124548284
aF-0.14937264120117372
aF-0.049203456719954804
aF-0.049959436395334296
aF-0.34320910414751143
aF-0.030938466664855276
aF-0.3749379716540359
aF-0.002585067920712081
aF-0.19996999086121248
aF-0.6500069067278439
aF0.0
aF-0.13310449483388553
aF-0.04994609693067445
aF-0.049476024124405105
aF-0.19671052194189065
aF-0.24888058704262922
aF-0.05
aF-0.05
aF-0.19817421565538085
aF-0.04927398062205811
aF-0.04999971778518695
aF-0.03919376403629862
aF-0.04833112852975339
aF-0.05
aF-0.149998626924479
aF-0.4828069831751525
aF4.180940536002709e-08
aF-0.14964434663318932
aF-0.04527879003734947
aF-0.04999897159332242
aF-0.11423629963772541
aF-0.07442841429846972
aF-0.0499999919902349
aF0.0
aF0.0
aF-0.05
aF-0.05
aF-0.25492978776246755
aF-0.030910977255164132
aF-0.04999999797904525
aF-0.05
aF-0.036629979717710696
aF0.0
aF-1.928066882642119
aF-0.05
aF-0.2998150475082473
aF-0.049097280334010784
aF1.710717322275967
aF-0.09093160015042781
aF-0.0499999999997201
aF-0.09999986306784708
aF-0.0472955711289948
aF-0.034495916806908215
aF-0.1044418774121243
aF-0.05
aF-0.09837592927449001
aF0.025
aF-0.038578958947837104
aF-0.13662784435510003
aF-0.038578958947837104
aF-0.05
aF-0.0643511214599603
aF0.17548779205392206
aF-0.428813156652869
aF-0.09999999992450169
aF-0.33079125877002585
aF0.0
aF-0.29998408362302675
aF-0.05
aF-0.23404048517827253
aF-0.044054134563464506
aF-0.0005057906554517489
aF-0.2574551528624325
aF-0.04999861539272385
aF-0.04999999528825281
aF-0.026372648953793393
aF-0.04833370502846118
aF-0.05
aF-0.04994609693067445
aF0.03432023453575283
aF-0.049999999999766336
aF0.021153507327512706
aF-0.35112179111343256
aF-0.18903975406692197
aF-0.09828166005317318
aF-0.19912489298639036
aF-0.14943566481944387
aF-0.04999952871724633
aF0.0
aF-0.09997428272084898
aF-0.06814795442266881
aF-0.09115862275513834
aF-0.0024617756511208125
aF-0.1780807858195873
aF-0.049999999999997706
aF-0.1499117280534224
aF0.0
aF-0.1485634145804074
aF-0.049590068227832684
aF-0.09999946475090535
aF-0.09999922139232031
aF-0.04999999839413729
aF-0.06293467784433614
aF-0.34999913045610614
aF0.0
aF-0.03773332153531977
aF-0.014931365918788773
aF-0.14998814872269145
aF-0.22724962903417847
aF-0.09999999924471045
aF-0.05
aF-0.2852036224632583
aF-0.04999893004367273
aF-0.04999999999999941
aF-0.5754134396720685
aF0.0
aF-0.3496566968092517
aF0.0
aF-0.011005115882961592
aF-0.05
aF-0.04999999614439543
aF-0.15243828486413594
aF-0.08524428070472548
aF-0.14976140567110893
aF-0.09867878561927457
aF-0.049999999999505954
aF-0.040488121459026194
aF-0.05
aF-0.04999999998558894
aF-0.02499999999999074
aF0.0
aF-0.09849531932474448
aF0.0
aF-0.04139004059239791
aF0.09239084964150591
aF-0.27266593529774114
aF-0.04997812304227689
aF-0.09788245859493354
aF-0.01029565734206393
aF0.0
aF-0.09331417182566118
aF-0.04913633964165602
aF-0.04999999647096452
aF-0.29452775859041835
aF-0.05
aF-0.049667965249826515
aF-1.1979582973443463
aF0.0
aF-1.5914656072884372
aF-0.1993235842879782
aF0.0
aF-0.3708737693213966
aF-1.4955442303410724
aF-0.8907925830721852
aF-0.049999863067847074
aF-0.0021616349432454773
aF-0.06638952964039559
aF-0.04717747235931172
aF0.0
aF-0.0979008644768844
aF0.0
aF-0.1436259995888111
aF0.0
aF-0.02704504079231403
aF-0.336348055504978
aF-0.2986591360056143
aF-0.04998547967094447
aF-0.2603166059334622
aF-0.04531428449522751
aF-0.04999999999999998
aF-0.04757588863320392
aF-0.013175486451983635
aF-0.14997432971003952
aF0.02174682340113239
aF-0.28708663569983733
aF-0.09999999999388998
aF-1.7599600992080122
aF-0.043331248126271704
aF-0.09999615565826464
aF-0.04999999968594389
aF-0.006968886245753364
aF-0.09852526151432642
aF-0.04044996452261481
aF-0.19995337437108035
aF-0.12343598215509635
aF-0.29048220532927715
aF-0.049999999999346824
aF-0.03517435118528993
aF-0.049999974632817405
aF0.0
aF-0.049999768449900936
aF-0.1303701629529305
aF-0.02815500104762443
aF-0.3853257384743208
aF-0.1335099950919821
aF0.0
aF-0.09744558158360345
aF-0.05
aF0.0
aF-0.03615313671478532
aF-0.03014938520135226
aF-0.2499843365188169
aF-0.04999997892650511
aF-0.14999999371081107
aF-0.6314762885886716
aF-0.1328202713712165
aF-0.04999657352501714
aF-0.19875961885556181
aF-0.04999999999398185
aF0.011365860223490305
aF2.9704017023846063e-13
aF4.543862570471902e-06
aF-0.05
aF-0.3998289729608835
aF-0.324370272462473
aF-0.049659102774426395
aF-0.04075860439432457
aF0.0
aF-0.008254415038303415
aF-0.04998763283063769
aF-0.049994573104624726
aF-0.04999890253049055
aF0.0
aF-0.09999999999999923
aF-0.07500000000000001
aF-0.05
aF7.913889543686992e-10
aF0.0
aF0.0
aF-0.24984446922071718
aF2.111644192837048e-14
aF-0.14313562816378167
aF-0.2821981885177216
aF0.0015457161472686388
aF-0.3265430351916572
aF-0.7499395018062294
aF-0.01285445372252308
aF0.0
aF-0.012264410007486204
aF0.0
aF-0.05
aF-0.007043459513419454
aF-0.133931124598001
aF-0.05
aF-0.011000196710213257
aF-0.046419227143568616
aF-0.04913633964165602
aF0.0
aF-0.09904227039562762
aF-0.04814947883093067
aF-0.048057056077213285
aF-0.04999999945161627
aF-0.3039824436365253
aF-0.5778434234453959
aF-0.14946501659430686
aF0.0
aF-0.14999451276120296
aF-0.08215040094255048
aF0.0
aF-0.2497773821046395
aF-0.045592172026549055
aF-0.14999998488358168
aF-0.04999996738663324
aF-0.4149885621542669
aF-0.36875702906455765
aF-0.038578958947837104
aF3.1695305030554624e-08
aF-0.18903975406692197
aF-0.12474443549555866
aF4.0187250828771505e-07
aF-0.029059747503695332
aF-0.05
aF0.0
aF-0.04999893004367273
aF0.0
aF2.4928250855899003e-07
aF0.0
aF-0.4399610379133584
aF-0.09961829822358195
aF-0.1
aF-0.02815500104762443
aF2.162320424369652
aF-0.048395497860027586
aF0.0
aF-0.09972619032775702
aF0.14649243281147276
aF-0.049999999944652235
aF-0.14999998560360242
aF0.11504882732834493
aF0.0
aF-0.3578891099972923
aF0.0
aF-0.05
aF-0.04999837773761709
aF-0.2382450084595964
aF-0.11446226483234302
aF-0.04987723893021577
aF0.0
aF-0.24201625184182288
aF-0.14997473504169023
aF-0.09999722186983417
aF-0.14994280940693722
aF-0.05
aF-0.040957816037236985
aF-0.22406642777182678
aF5.883008524776301e-11
aF-0.2531814305222985
aF0.014825648814024223
aF-0.14930109971141692
aF-0.24182835630863547
aF-0.04980840918423366
aF-0.1635227817138205
aF-0.13523241334275254
aF0.10157433214591194
aF-0.09999722229422955
aF0.0
aF-0.04999999999999998
aF0.0
aF-0.09767437714655981
aF-0.19222356593204415
aF-0.05
aF-0.09899111857966514
aF-0.049567045497745404
aF-0.11767137242232462
aF-0.0044730875729674996
aF0.0
aF-0.09977081313771785
aF-0.13084672936579653
aF-0.04999760255359614
aF-0.029049137339236232
aF0.0
aF-0.3085946665322155
aF0.0
aF-0.04992991597688637
aF-0.030662834323732825
aF-0.05
aF-0.0489703611862981
aF-0.2846527808360293
aF0.0
aF0.675730569308374
aF0.0
aF-0.029059747503695332
aF-0.4430622978537224
aF-0.2993684374736366
aF-0.04986477745159981
aF3.839493667445737e-10
aF-0.05
aF-0.0499999383754849
aF-0.05
aF-0.1496492554463727
aF0.0
aF-0.1497133039193999
aF-0.36854339180164397
aF-0.04978400569048215
aF0.5780965054827014
aF-0.32228885371905214
aF-0.04846916798999199
aF-0.048707986731283306
aF-0.04999999979444206
aF-0.042153182420631256
aF-0.6721574119782959
aF-0.42014162420703144
aF-0.049999999999996374
aF-0.05
aF-0.09956694985374008
aF-0.09938383015071872
aF-0.053755483856491086
aF-1.1224723371161522
aF-0.49262952259528886
aF-0.5303009711432896
aF-0.17122244181685967
aF0.00040031194153845043
aF-0.05
aF-0.049999999998067673
aF0.0
aF-0.6978873257056746
aF-0.19501103203059905
aF-0.0005057906554517489
aF0.267344927511162
aF-0.05
aF-0.04999999968594389
aF-0.21817957865118787
aF-0.3213696692623182
aF-0.0468164870743618
aF-0.05
aF-0.09966294565406066
aF-0.1
aF2.156124633889145e-05
aF-0.035174351185975186
aF0.0
aF0.0
aF-0.047647245918014114
aF-0.21173833768071107
aF0.0
aF-0.10657634456473011
aF-1.159479428813673
aF-1.3659709803337368
aF-0.09608643404885713
aF-0.04999899689955267
aF-0.08375602320294123
aF-0.19988270072375727
aF-0.049999999506171955
aF-0.08662997971771069
aF0.0
aF-0.049999999248226325
aF-0.6975950212402693
aF0.0
aF-0.04999997747276314
aF-0.09984818054421406
aF-0.05
aF0.0
aF-0.1
aF-0.09956657421499174
aF-0.039922640275881945
aF-0.046256411298457964
aF-0.006215136470172623
aF-0.049313450603603357
aF-0.08473949685684089
aF7.322693407918468e-06
aF0.0
aF-0.04999999999999946
aF-0.19999987101530536
aF-0.049999550317934
aF-0.04998439457835865
aF4.342734101192569e-05
aF-0.09999993956211733
aF-0.12561638002532202
aF-0.24440991280532143
aF-0.30888418911625176
aF-0.05
aF-0.14954027466853054
aF-0.04999227201323079
aF-0.047836716787059544
aF0.0
aF0.0
aF-0.049567045497745404
aF-0.0001393957312215033
aF-0.02704504079231403
aF0.0
aF-0.11760346303307018
aF-0.17897497359651288
aF-0.04999989688021322
aF1.0159106889062741e-10
aF-0.04999999999999796
aF-0.05
aF0.0
aF-0.0499999999995841
aF-0.07235923395788618
aF-1.1090724359534756
aF-0.049929799976337653
aF-0.3402327917876533
aF-0.09999921303712059
aF-0.19999998992585255
aF0.009639491976040165
aF-0.6092001584879563
aF0.0
aF-0.016056694616193145
aF-0.09268402723524109
aF-0.14943774794560374
aF0.0
aF-0.04996468594064448
aF-0.04968549000607724
aF-1.2562775970344504
aF-0.14952495993666767
aF0.0
aF-0.05
aF-0.04964443451475273
aF-0.1386864442383643
aF-0.15827514735410594
aF-0.049996193134227984
aF-0.1680102442810436
aF-0.005606843878445134
aF-0.046817189139561025
aF-0.04999999719999246
aF0.016242549607632755
aF-0.26824368866207976
aF-0.620314137466879
aF-0.049590068227832684
aF-0.2306717059135206
aF-0.05315500104762443
aF-1.1090724359534756
aF0.0
aF-0.0976531684646077
aF-0.1305739749349607
aF-0.01469419199517738
aF-0.04999993865668513
aF0.0006165539423899809
aF-0.19997152515105443
aF9.914443961478448e-07
aF0.0
aF-0.05
aF-0.1493225130847216
aF-0.04999948507125057
aF-0.09996949716816399
aF0.0
aF-0.1390186816974491
aF-0.3462509204278859
aF0.0
aF-0.23391912538289125
aF-0.19847067207215613
aF0.0
aF0.0
aF-0.24971771573318843
aF-0.2982583464631992
aF0.0
aF-0.23609833622131518
aF-0.05
aF-0.0499998732780246
aF-0.6009406048716943
aF0.0
aF-0.12830960858051646
aF-0.01702826656924357
aF-0.09994387936302804
aF-0.1339189642429174
aF-0.04992000890660361
aF-0.3331408998046945
aF0.0
aF0.0
aF0.0
aF-0.1
aF-0.23698109233295725
aF-0.14511049832112768
aF-0.029059747503695332
aF0.0
aF-0.29757090097973865
aF-0.3550498184789773
aF-0.05
aF-0.0993836932185658
aF-0.049567045497745404
aF-0.3836879372461008
aF-0.1395349295011398
aF-0.18763518738921076
aF-0.09733560993617849
aF-0.05
aF0.0
aF-0.049606339691365346
aF-0.049313450603603357
aF-0.14959552468751586
aF-0.39449433084571767
aF-0.17462528207701045
aF-0.1499999983448027
aF-0.07786774848745012
aF-0.049567045497745404
aF-0.2973108654842137
aF-0.48380686594350436
aF-0.1246252820770105
aF0.21519164953457776
aF0.0
aF-0.049999939562187394
aF-0.0749999555721842
aF-0.2490098371071672
aF-0.33079125877002585
aF-0.7194551906568885
aF-0.09996468589907173
aF-0.651073162281584
aF-0.3496566968092517
aF-1.6457447074100213
aF-0.6154087985633169
aF-0.05
aF-0.09999852586630649
aF-0.7807724866053127
aF-0.008883380131931734
aF-1.012866462051984
aF-0.5491128002875372
aF-0.04846711150590843
aF-0.08531428378168299
aF-0.19999999883901234
aF0.0
aF-0.6178694128934115
aF-0.2383414502540356
aF-0.38951114909137496
aF-0.3271409007200176
aF0.0
aF-0.19301641510618595
aF-0.1
aF-0.05
aF0.0
aF-0.1378473859313707
aF-0.05
aF-0.04999893004367273
aF-0.09982068519182913
aF-0.3207817642288058
aF-0.19895359550639388
aF-0.0988470423708925
aF0.0026029117473243104
aF-0.1996948590910932
aF0.4338313397463007
aF-0.1892067682274792
aF-0.4342983571967212
aF-0.7388670209373198
aF-0.15000000000000002
aF-0.13974608195876992
aF-0.08920452734522281
aF-0.3343020909817592
aF0.0
aF0.0
aF-0.15000000000000002
aF0.0
aF-0.39985403307375633
aF-0.18666476957300634
aF-0.12499791986178813
aF-0.036629979717710696
aF-0.022789200133022776
aF-0.049606339691365346
aF-0.18609843660196917
aF-0.05
aF-0.0024617756511208125
aF-0.07283918905042272
aF-0.044039664741578166
aF0.0
aF0.13044037704893718
aF-0.19908301429283545
aF-0.24606463534082715
aF-0.04999995419022894
aF-0.041744784584430664
aF-0.09881343880580962
aF-0.19912727535978886
aF-0.0702125068405963
aF0.0
aF-0.05
aF0.0
aF-0.08531944441434344
aF-0.30026947793232095
aF-0.05
aF0.07178667432560916
aF-0.5004258198977583
aF-0.049998016500802114
aF-0.39794860993590664
aF-0.049999912118436574
aF-0.041704520754132696
aF-0.04999973303587253
aF-0.4646679081920634
aF-0.5462103130454429
aF-0.04961151057250221
aF-0.05
aF-0.0891849894882061
aF-0.3100362078614604
aF-0.1799504513426275
aF-0.042987415064794005
aF-0.05
aF0.0
aF-0.14999999924471047
aF-0.1999073009342729
aF-0.05
aF0.2033168494520163
aF-0.049999999999949446
aF-0.3965575836137304
aF7.704874516178961e-11
aF-0.05424857011314267
aF-0.19992999691242824
aF-0.19436814746436754
aF-0.04999999990966217
aF-0.049999999923959586
aF-0.046419227143568616
aF2.6692110204895595e-07
aF0.0
aF-0.09336221106726834
aF0.0
aF-0.24999984969393463
aF-0.24999984969393463
aF-0.1457803052676631
aF-0.14983752425158078
aF9.914443961478448e-07
aF0.0
aF-0.05378180215697406
aF-0.04904569687061047
aF-0.049999999506171955
aF-0.046419227143568616
aF-0.175927245779115
aF-0.04999999999999941
aF-0.0125
aF-0.018186201360838712
aF-0.09891374621514874
aF-0.0499999999999998
aF-0.006899983290368151
aF-0.1757952930764949
aF-0.04999994188615551
aF0.0
aF-0.024999971388863812
aF-0.5007685792743097
aF-0.04875802217150568
aF0.0
aF-0.047647245918014114
aF-0.2985549862736856
aF-0.04999999996473669
aF-0.04925856420360891
aF-0.01439210098584558
aF0.0
aF-0.13613169791731677
aF-0.06021923586641494
aF-0.030885193390830745
aF-0.12059346876089691
aF-0.04942266207526146
aF1.5698223852328443e-05
aF0.30207499113567027
aF-0.0999999346509736
aF-0.14774336050576753
aF-0.05
aF0.0
aF0.0
aF0.0
aF0.0
aF-0.05
aF-0.24699180188827616
aF0.0
aF-0.09819560339591829
aF-0.04994609693067445
aF0.0
aF-0.04904454157571812
aF0.0
aF-0.14713223949031934
aF-0.006199815537757953
aF-0.1499887588913985
aF-0.049606339691365346
aF-0.2547086827719021
aF-0.13586387019824897
aF-0.03919376403629862
aF0.0
aF-0.7641032573915925
aF-0.05
aF-0.2885501960863558
aF-0.05
aF0.0
aF2.367182561080483e-09
aF-0.2999874050223611
aF-0.19543141518862883
aF-0.049349252031370916
aF-0.006968886245753364
aF-0.00760095222824142
aF-0.12479238256861241
aF-0.09999998243807075
aF-0.049999999506171955
aF-0.049999999972179666
aF-0.0968164870743618
aF-0.5710699328082893
aF1.0866658611830006e-08
aF0.0
aF-0.04387146562191265
aF-0.049606339691365346
aF-0.02683624124236707
aF-0.5468011188563887
aF9.914443961478448e-07
aF-0.09999998790085421
aF-0.0024617756511208125
aF0.0
aF-0.049999999999999635
aF-0.049831408748066436
aF-0.07848322664839488
aF7.704874516178961e-11
aF0.0
aF-0.2471247917013803
aF-0.09999999199023432
aF-0.18749663820252815
aF-0.1499079179896332
aF-0.14949414525774812
aF0.013901563398030399
aF-0.05
aF-0.04987405995297791
aF-0.046871964310192686
aF-0.08238138418872212
aF-0.08604451907374898
aF-0.04853364985259872
aF-0.09999999835034373
aF-0.12810964059930102
aF2.111644192837048e-14
aF-0.05
aF-0.09978664385706455
aF-0.049999999506171955
aF3.8156936411382075e-05
aF-0.04999861539272385
aF-0.049982213544285954
aF-0.05
aF-0.049999655411522036
aF-0.14740804303453958
aF-0.02889738730115203
aF-0.29999999574176306
aF-0.0499548829436499
aF-0.05
aF0.009877962982449973
aF-0.09999989787023152
aF6.289181514462783e-09
aF-0.09964764570440411
aF-0.14999998203996956
aF-0.05
aF-0.04999994188615551
aF-0.05
aF0.0
aF-0.7664304979419228
aF-0.04999998283752041
aF8.211639397030513e-05
aF-0.05
aF0.0046857010042497425
aF0.0
aF0.0
aF-0.09907909756081303
aF-0.0468697580654355
aF-0.04999995946207189
aF-0.0499999999995175
aF-0.1
aF-0.4537945509460804
aF-0.05
aF-0.2778511597412975
aF-0.08592804960609306
aF-0.7283037118905983
aF-0.044825613194857984
aF-0.049831408748066436
aF-0.09999998790085421
aF-0.04505109180715874
aF-0.09336093193345102
aF-0.0999999524773679
aF-0.047647245918014114
aF-0.049999999999999635
aF-0.04999994188615551
aF-0.049606339691365346
aF-0.29395490506299365
aF-0.09951405089667892
aF-0.5472026596945065
aF-0.04875802217150568
aF-0.032260815290357285
aF-0.049991372561376146
aF-0.0468697580654355
aF-0.049999999506171955
aF-0.13863892193496996
aF-0.05
aF-0.09942421246072192
aF-0.14999359376027951
aF-0.04861731764973374
aF-0.05
aF-0.04977178363260002
aF-0.0456432961000908
aF-0.05
aF0.0
aF-0.2879160379077155
aF-0.41659911763368007
aF0.0
aF-0.03410536545109543
aF-0.34864318445783
aF-0.0330688982333872
aF0.0
aF-0.14953336804502243
aF-0.12499994293407618
aF0.3676313778845779
aF-0.04685352667719704
aF1.1546146436617242
aF-0.29879866877498107
aF-0.8179845167810407
aF-0.04984944583488879
aF0.08333346536856043
aF-0.059316362483917945
aF2.204317228080397
aF-0.14483509209820064
aF0.0
aF0.0
aF4.561960546410469
aF-0.04999999991441868
aF-0.02884649267246639
aF-0.1724320141913187
aF2.7342567986360368e-05
aF1.3653448358181988
aF9.74925086346505
aF2.130925456871511
aF-0.1168425931117794
aF-0.710355294305012
aF0.128714324543288
aF-1.9193969168487586
aF-0.049999996715329884
aF0.03353784098691634
aF-0.06431857241386309
aF-0.03333252478991529
aF-0.05
aF-0.08852010462712656
aF0.19320788079270496
aF-0.049999999999999795
aF-0.04999999992895924
aF2.462415277945213
aF0.5946976969030225
aF-0.3394964024258599
aF-0.12499942517231147
aF-0.14549330630249963
aF-0.06860238508611197
aF2.220446049250313e-16
aF0.04004090977051674
aF-0.049507001086211935
aF-0.04999999992895924
aF-0.0203630293872992
aF-0.05422713120079607
aF-0.29749642027986983
aF-0.19999999995759213
aF-0.29616733417312013
aF-0.09417403426245
aF1.3530615530540893
aF0.0
aF0.3748519444680414
aF0.052060265542229575
aF-0.015928800426306282
aF9.010443415963383
aF-0.00832870818849188
aF-0.4559877500540415
aF3.088240029206727
aF-0.06666665000000001
aF-0.1222221214831099
aF-0.0375
aF0.08856728742624853
aF-0.07671115402360822
aF0.063636400000324
aF-0.09613747928265502
aF0.0
aF0.0
aF-0.07653265569862655
aF3.4669044075322772
aF0.08184759445717263
aF-0.08000000000000002
aF-0.1289548726660753
aF-0.0611111
aF0.12642194776438467
aF0.05110643997301329
aF-0.14999994999999974
aF4.180940536002709e-08
aF0.0
aF-0.0031550010439062425
aF0.5251717773296013
aF-0.2152648497317708
aF0.16203295530535342
aF-0.1429056882536895
aF0.04581845927780608
aF0.0
aF0.7258990963198808
aF1.2340207685056923
aF-0.11765569756806588
aF-0.1391667474714642
aF-0.035756727942667196
aF0.3939707843072091
aF-0.08333335
aF-0.09993796921146848
aF-0.0499997492403109
aF0.0
aF-0.21987945020775132
aF1.3926101169691878
aF-0.1
aF0.08484128352530639
aF1.6886404661541656
aF-0.05
aF-0.225750383613001
aF-0.0234100006935992
aF0.38474771530236757
aF-0.07499877311910047
aF-0.04999997501200124
aF-0.05
aF0.3614021676006945
aF0.016830540125672387
aF0.004075119272657475
aF-0.05
aF0.0
aF1.3311574065255628e-14
aF-0.12499999999402409
aF-0.049999949882894176
aF-0.07499991573770169
aF-0.049999999999997435
aF-0.19999875872943618
aF-0.17500000000000002
aF0.8004326778224865
aF0.6807482515123767
aF6.505867173191293e-06
aF-0.09515379933079951
aF-0.09919433813387259
aF-0.23502843084393063
aF0.12333095524333804
aF0.06787075938988366
aF0.045454707644228806
aF-0.05
aF-0.012499999990261454
aF-0.05
aF0.0
aF-0.05
aF-0.024819918671917116
aF0.2716577781467343
aF0.033515218522690245
aF0.0
aF-0.025
aF-0.3159576017904846
aF1.2218680825975605
aF-0.13440431351000362
aF-0.13203875026190612
aF-0.19998712635952431
aF-0.049999982047440335
aF0.0
aF-0.19629828546046746
aF0.04916924957920975
aF9.389437444981552e-07
aF1.9358989062129296e-05
aF0.24830189960876967
aF0.06499640927583837
aF-0.13322664835478182
aF-0.04999999984195215
aF-0.024999984773632286
aF-0.0499795790100549
aF-0.21436738769202343
aF-0.05
aF0.8197532377311664
aF-0.12325223055418444
aF-0.09999973498819431
aF-0.05
aF-0.04411202088491295
aF-0.04507794502490388
aF-0.14453194118031923
aF0.19448897720333472
aF4.09760714921046
aF-0.07499999330996773
aF-0.11665556305253655
aF-0.04859033430323232
aF2.6444562142541153
aF-0.4253030413693931
aF-0.1834674120606303
aF-0.04999999924471047
aF-0.30023330431559114
aF0.15997753582286295
aF-0.11659802878737695
aF-0.05
aF2.481988939427586
aF-0.049998961366989815
aF-0.049648237555698436
aF-0.0499999999999998
aF2.272944379182178
aF-0.04999999999999996
aF-0.14956667546466765
aF-0.09999029151301289
aF-0.07500000000000001
aF-0.024726190327756976
aF-0.04999999999999658
aF-0.05787922226165672
aF-0.024999999999999238
aF0.0
aF0.0036737716847095626
aF-0.05
aF1.7211805792975279
aF-0.05
aF-0.29959203076068386
aF0.573209583123697
aF-0.0374315475819385
aF0.0
aF0.3233808147489136
aF-0.11446266244139072
aF-0.016527727392701815
aF-0.05
aF-0.044437749410969944
aF0.0
aF-0.21548173655249694
aF-0.05
aF-0.10038936084117844
aF-0.1133462666912607
aF0.0002738096722429695
aF0.13299360679345557
aF-0.14871703719561147
aF0.125198011007655
aF-0.0833333
aF-0.05
aF-0.02459020795681567
aF-0.09999877311910046
aF-0.05
aF0.7448829786276809
aF-0.1999993381695156
aF-0.09999003578217197
aF-0.0716853284429863
aF-0.08755600263221858
aF6.0450189478528795
aF0.0
aF-0.04893308621741585
aF0.020998646435808184
aF-0.07988452759445716
aF-0.26618728031264705
aF0.0017119556699182331
aF1.1564726705065251
aF-0.01996886746073194
aF-0.024999999208611047
aF-0.09999999999999999
aF-0.024999999999999994
aF-0.0999702573167755
aF-0.2823072033827631
aF-0.024999997199992456
aF-0.3441852321400565
aF0.3302253271687562
aF-0.04564329610011431
aF-0.05
aF-0.24678744566494754
aF-0.028159612957764167
aF-0.13118126748224185
aF-0.07050019886115286
aF-0.0499999999999998
aF-0.04972619032775703
aF0.15000010718294202
aF-0.05
aF-0.09793285999320095
aF-0.049999996230857394
aF-0.05
aF-0.08948630468949115
aF-0.04999999999999957
aF-0.0499999524773679
aF-0.09999999930051628
aF0.0
aF-0.13124439271198296
aF0.15669065643111682
aF0.2645446675791439
aF-0.07999926422343123
aF-0.04999999999999312
aF-0.07499784314002458
aF-0.09999999999999312
aF-0.0487356327362895
aF0.0
aF-0.05
aF-0.4376386731304391
aF-0.3395495374429591
aF0.04861656422009894
aF-0.4499584845288008
aF-0.09892490401621432
aF-0.09561749583440335
aF-0.11302295514910268
aF0.22400623547429277
aF-0.11410515671646451
aF-0.1978266407647445
aF0.0
aF-0.1965304507997881
aF-0.13563737535767598
aF-0.04999979909842122
aF-0.24410886481755126
aF-0.08
aF0.0
aF0.30556657391458986
aF0.0248543613986768
aF9.186663429971986e-09
aF0.0
aF2.4333384628661934
aF-0.1706043958029923
aF-0.20716173749752084
aF-0.12299304818267578
aF-0.09599807614909084
aF-0.049692008950593045
aF0.0
aF-0.05
aF-0.04999999999999658
aF-0.036853319556311326
aF-0.062499999999999986
aF3.7561314845385096
aF0.8739788258209638
aF0.0
aF-0.04071856478101665
aF-0.05
aF-0.028253176598867613
aF0.07385741548359513
aF-0.09883718855823423
aF-0.18205307312175426
aF-0.05
aF-0.11281085393745602
aF-0.08914019732093906
aF-0.049999714805673175
aF-0.18271723935819084
aF-0.0036568343130560996
aF-0.049998215580745034
aF-0.18944855046178002
aF-0.09999922139232031
aF0.03807665133095439
aF-0.049999801542128276
aF0.02942903686783875
aF-0.05
aF-0.09599564078744832
aF-0.1949239075558049
aF-0.07499999999988316
aF-0.04999984912259865
aF1.0762815447057559
aF-0.1833333394555121
aF0.8702905160230632
aF-0.033253635152125746
aF0.05798809207495975
aF2.029519402177662
aF-0.0333333
aF-0.12352798058166169
aF-0.05
aF-0.09333116916619949
aF-0.04999161654953153
aF0.05503742880429166
aF-0.049999904765617505
aF-0.1455652013508355
aF-0.2054670595417153
aF0.018326327351215577
aF0.1386254094888526
aF0.0
aF-0.05
aF-0.06666664999989383
aF0.0
aF-0.04998975487855517
aF-0.11666670000000001
aF-0.019891145656078652
aF0.8963742594271531
aF-0.05
aF-0.19020351252195994
aF-0.14999999992186996
aF-0.1784178647319271
aF-0.06243252572182735
aF-0.04737330850594049
aF4.376533230591862
aF-0.05
aF-0.05
aF0.025019242030114897
aF1.8979074309474822
aF0.15714303599514032
aF0.11048756195124862
aF1.9952829882093117
aF0.08241189287941152
aF0.0
aF-0.41208027539894976
aF0.0
aF5.487452985669745
aF0.025
aF-0.3105950580216359
aF0.0
aF0.03179322302837387
aF2.4948603124892053
aF-0.08948634811863343
aF-0.049677210646325916
aF0.002522812137819151
aF0.0
aF10.605664562724037
aF1.8006927248293004e-06
aF-0.7246198045578416
aF0.07919478654432273
aF-0.034999999999999996
aF-0.05
aF-0.024945980217851344
aF0.3579185054929308
aF0.2605114815679658
aF0.3144061364907121
aF-0.06666665000000001
aF0.4271842113824577
aF-0.0599389259600884
aF3.6229047350147634
aF-0.14999999920860563
aF-0.4087597222782447
aF-0.07204579723023231
aF-0.05
aF-0.3448790713648848
aF-0.049349252031370916
aF-0.02384092926135182
aF-0.13979382077757577
aF-0.3176391315475903
aF-0.049999999873471646
aF6.574762540716665
aF1.191368538834872
aF-0.24997471673207147
aF0.0
aF-0.044054134563464506
aF-0.09999997536107227
aF0.0
aF-0.2683086291814929
aF-0.35403326021543147
aF3.420538900289483e-07
aF-0.14999995869392213
aF0.4056530865726381
aF0.07857457533402747
aF-0.03013944446121125
aF-0.04999999999999312
aF0.03750000002176606
aF-0.31020687793877055
aF-0.15000000000000002
aF-0.17492017047810163
aF-0.0999990965784597
aF-0.04999999999999998
aF-0.20989272682603546
aF-0.05
aF4.387295441202127
aF-0.07628802060055555
aF-0.05
aF-0.06179613138493939
aF-0.04999993390059995
aF-0.03919376403629862
aF7.913889543686992e-10
aF-0.06502736271458111
aF-0.14999999999984073
aF-0.16506538535896303
aF-0.03333324486405573
aF-0.02499994199972564
aF0.04762656608611618
aF-0.022222199611397583
aF-0.049999997920990205
aF-0.04999998478853726
aF-0.08888885000000002
aF1.3384660681222114
aF-0.39970461569156923
aF5.806866763607953
aF-0.04999999999999991
aF-0.049999998588095625
aF0.13132926381046253
aF-0.02815500104762443
aF-0.19951352840996023
aF-0.27499691374235125
aF-0.14999966771119466
aF-0.25114466581342276
aF-0.1377820637388427
aF-0.23960743637146487
aF-0.008702818496672121
aF-0.046362222024283334
aF-0.14175835304639053
aF1.3459644845166754
aF-0.3418920247720468
aF-0.04999999920861105
aF1.1600054871663268e-07
aF7.4646533421494246
aF-0.05
aF-0.12331160935275395
aF4.699980221489388
aF-0.1
aF0.022142118320557992
aF-0.062494842807619515
aF-0.059977590387912685
aF-0.05883638158316348
aF-0.09999999999999946
aF-0.04998790020800056
aF-0.09998239961400408
aF-0.02499999994953386
aF3.630429290524262e-13
aF-0.05
aF-0.003999999983030383
aF11.766054811221096
aF9.468082131681019
aF-0.03304225599231917
aF1.9654648500316387
aF-0.07499995786891388
aF0.011418942554454789
aF8.068128398170103
aF-0.2924258129199932
aF-0.14904675276785173
aF-0.1499999759672974
aF-0.15000000000000002
aF0.0630102860487583
aF-0.125
aF0.8881139204583376
aF0.0
aF-0.029999999545977554
aF-0.02999998299684411
aF0.36522187854777144
aF-0.05
aF-0.0987991479445902
aF1.0367678905826687
aF-0.04999999999999658
aF-0.1812460037059275
aF-0.04999999999999023
aF0.0
aF-0.23688889744545893
aF-0.049999999999996374
aF-0.14954142004252063
aF-0.11266158232141658
aF-0.043851213002723224
aF0.0
aF-0.7751389996820636
aF13.187956291663344
aF1.8344380487085665
aF-0.05
aF5.915611070807644
aF-0.06461152059509029
aF0.016666700000000007
aF0.040909386307211845
aF-0.049998961366989815
aF0.9482091394386174
aF2.316504213185407
aF-0.007894674783261151
aF-0.04999955749052836
aF-0.07499960934199718
aF-0.09999999932111578
aF0.0
aF-0.04969540982467284
aF-0.05
aF-0.1
aF-0.17370897804087204
aF0.8567090311258098
aF0.26662323770637986
aF0.7442377363971207
aF-0.04929549924413095
aF-0.05
aF-0.024534484279349848
aF3.295780871883604
aF0.026739672275667675
aF0.4708057321567535
aF0.012721633427608854
aF0.0
aF-0.08571423258795792
aF0.004672798009106981
aF1.5646895266487588
aF-0.05
aF-0.017596732691369257
aF0.0
aF-0.19524110266463857
aF-0.1999999999644796
aF2.4402618232712707
aF-0.1199999963784142
aF-0.04995893255148451
aF0.07689541661471563
aF-0.39739620968673334
aF0.0
aF-0.04999996134711507
aF3.058710671549614e-08
aF-0.10120878975334949
aF-0.05
aF-0.09999999997746468
aF-0.08291724597391457
aF-0.09862613138833551
aF0.3002104842324969
aF-0.08817849878108568
aF0.0
aF-0.014959408386333046
aF-0.05
aF-0.0666666499998947
aF0.0
aF-0.05
aF-0.0674820628854513
aF-0.09908284008504126
aF-0.3999998017882184
aF-0.618714554780579
aF-0.024998077174572645
aF-0.05
aF-0.2166240038940183
aF0.0005949633633501213
aF5.072104901998007
aF-0.07499993956208209
aF-0.19969686307746726
aF-0.05
aF-0.08504150106884194
aF-0.04999947710589421
aF0.009639491976040165
aF-0.05
aF-0.049979186539687796
aF-0.04999999854985199
aF-0.05
aF-0.0666666999998947
aF0.052157793228468044
aF-0.14285201826431018
aF-0.049999483961826456
aF-0.05
aF11.406154746324264
aF0.0
aF0.0024612823973908238
aF-0.049998961366989815
aF-0.3200513319698618
aF-0.14991973573625061
aF-0.04999999999999658
aF-0.08116624717522267
aF-0.04999942169430664
aF-0.09425604723741042
aF-0.05
aF-0.04999999999999995
aF-0.05
aF-0.04999999999999999
aF0.0
aF-0.08611958392128549
aF0.0
aF0.0
aF-0.09336082906128504
aF-0.05
aF-0.13451246169024206
aF0.0400004174431297
aF0.36314501536028054
aF0.0
aF0.013911522759414647
aF-0.12470822497886982
aF-0.43078790995797556
aF-2.4474104028899033
aF-0.026154675919763337
aF-0.24581774862947126
aF-0.02499989954921061
aF-0.1530468850192509
aF-0.24133911202163383
aF-0.053484682825980054
aF-0.10168042363784291
aF0.42866566173112086
aF3.658228039937761e-07
aF-0.007739106174247293
aF-0.011680471084915128
aF9.07052211118753e-15
aF0.0
aF0.0
aF0.3285622399882914
aF-0.13604969876245143
aF-0.032320361781157075
aF-0.048979128051951114
aF0.9713347557103029
aF-0.12538800720552357
aF-0.2624878381783389
aF-0.05
aF0.027090330716308286
aF-0.02360005279360366
aF0.058752612892934625
aF-0.060116415586380985
aF-0.01958535672595162
aF-0.1
aF0.0
aF-0.03080421663825304
aF2.3883441536115804
aF-0.0997958652636978
aF-0.04999815956182632
aF0.5455876011109176
aF-0.11638438061389589
aF0.6077525893008183
aF5.21240495940866
aF-0.2491924619606194
aF0.5422700932481733
aF0.0
aF0.34094814399194895
aF-0.028846492048035587
aF-0.6996195609292784
aF-0.018614509097578974
aF0.025
aF-0.05
aF0.010033509401375096
aF-0.04999999999341548
aF0.02174682340113239
aF-0.09999997536104174
aF-0.17426398013789168
aF2.9434472058718923
aF0.15850630101552765
aF-0.12737903836197909
aF-0.0243947686733591
aF-0.012436430490293117
aF-0.17199972146939607
aF-0.19827166287357018
aF-0.1
aF-0.09999993956213474
aF0.00032932131677256287
aF-0.08334139028517998
aF0.22658949983153306
aF0.0
aF-0.06587754572386742
aF-0.04999999999999995
aF-0.26791453997668163
aF-0.1499999999245017
aF0.0
aF3.8456099017255507
aF0.0
aF-0.188976669377074
aF0.14368998925872983
aF0.4077421226366232
aF-0.029570445073264385
aF-0.04999999999961806
aF-0.08332067364438123
aF-0.02499999999979205
aF3.5455847379270184
aF-0.05
aF1.4622337116607764
aF0.5762862138706677
aF-0.03124999999999999
aF-0.009921557038359285
aF8.889286706783496
aF0.0
aF0.27587012153128593
aF0.8963274802782434
aF0.020875645054533407
aF-0.14970719017364895
aF0.512505454696422
aF0.19613976601803745
aF0.0
aF-0.04999999999999997
aF-0.033333346162969776
aF2.156124633889145e-05
aF7.550323204828365
aF-0.1413528692913307
aF-1.324208804814343
aF-0.04995163384938359
aF-1.8646059212272816
aF-0.05
aF0.0
aF0.09244972659816032
aF0.6167790478427797
aF0.31128270009095776
aF-0.1
aF-0.11998099220474864
aF-0.14999918948126556
aF0.5653192952616038
aF-0.04999983399945129
aF0.37949936661725275
aF-0.12413857910873513
aF-0.12499998569443188
aF0.0006992960725780983
aF-0.004663457779244784
aF-0.05
aF3.956944771843496e-10
aF2.293775466922391
aF-0.03424590936841281
aF-0.06242733931173765
aF-0.012499769614335549
aF2.103123294050164
aF-0.12444291906899237
aF-0.2771927363898935
aF0.0
aF-0.05
aF-0.8298116857167703
aF0.9494725883391466
aF8.617471957278267
aF0.1666071526255678
aF18.684020086024546
aF-0.28163070140186997
aF10.991947690028217
aF-0.3488607839053489
aF0.3878434872304352
aF0.30071537220608385
aF0.012500000000000004
aF21.87352902779547
aF20.090673189287223
aF8.005243852137154
aF-0.0499999524773679
aF-0.14999999999999764
aF-0.09999998578805279
aF20.919659402534386
aF2.5907437260913633
aF-0.04999998993181961
aF0.026203025743400013
aF-0.09999986306782596
aF-0.09672744850742293
aF-0.19998029487933255
aF-0.07499999986153555
aF19.304822591002498
aF3.2948358081582274
aF0.12504345037416784
aF0.09863985476067069
aF0.3388796177308418
aF-0.1
aF22.163139257368574
aF8.390973493543157
aF21.647464831711932
aF0.0973548999705725
aF-0.002735067743500961
aF0.20900827932272348
aF6.971714805177863
aF-0.19039140659339882
aF22.14495900074087
aF0.17957010262556783
aF0.05108098675695545
aF0.2651389894399393
aF1.3370598743423912
aF-0.583656269698056
aF-0.0825267055263233
aF-0.17654606307066323
aF2.8709557474175953
aF0.6341646971837572
aF0.7422699205556712
aF21.648537391407274
aF0.0237259973843858
aF-0.11958665386938498
aF7.60130647361245
aF8.561296476366156
aF11.015808903336952
aF-0.38639743852559294
aF-0.04998508118883052
aF0.33828881173987363
aF-0.049999999866711345
aF14.748074255273082
aF-0.0156629945070106
aF3.016951903938349
aF6.685715660244666
aF1.1151628336615063
aF-0.04999983786174115
aF-0.1499999999999975
aF0.0973548999705725
aF9.169236287409149
aF-0.09999986306782596
aF-0.05
aF18.579564080125138
aF-0.25557906043766215
aF14.222286458074612
aF0.08981022392377057
aF21.485842989273298
aF20.53731294225736
aF6.017615505489175
aF3.3140713202747576
aF0.9795956365528681
aF-0.09889309137908159
aF18.553123447184227
aF-0.1498772903646177
aF5.337506260455797
aF0.0
aF22.922868395298824
aF-0.1999999977032701
aF2.0446182242102133
aF-0.30640238112531126
aF6.189474301828524
aF-0.02081114923957326
aF8.955242579279288
aF-0.02981656801483659
aF-0.34753794838660923
aF3.282159437271695
aF-0.26139745450488505
aF-0.22529376643560994
aF-0.05224398399691707
aF3.795599835595654
aF0.2218769554314727
aF0.7618366544020063
aF-0.20458338135400933
aF-0.13501369089076026
aF0.9452184087978853
aF-0.25809647753582926
aF21.65048302275484
aF0.6957443624549219
aF0.7893245554516118
aF0.0
aF0.0317305408756873
aF0.17594964536123572
aF0.5167282399308869
aF-0.19829735140186988
aF2.87463080648115
aF0.833924249867708
aF0.19397639121126223
aF14.885913277839233
aF-0.03254798393441091
aF22.240155072167948
aF0.36083058777295623
aF0.041724757137031304
aF5.412060151397771
aF-0.1448256131534937
aF0.912625103691051
aF0.1042778796657297
aF-0.5739762313341525
aF-0.05496519744081281
aF-0.14989313062482668
aF-0.0998779454156313
aF0.0
aF-0.1499999999999975
aF21.41665854895028
aF1.5964196447497145
aF2.9777655831301755
aF-0.15958740311010397
aF-0.14975458072923542
aF5.4030797454655
aF6.58939211082669
aF12.82616982769483
aF0.2595293340309856
aF-0.392939884418012
aF-0.19999994315222125
aF-0.028253176598867377
aF14.089007110355197
aF-0.05
aF21.266386023640475
aF5.17049634201472
aF11.100968044199405
aF0.040318746156035624
aF0.8878832962094774
aF21.500942907380452
aF20.576443434902426
aF-0.04729426246189068
aF0.0
aF-0.04995893255148451
aF-0.37882711893581283
aF0.18730061885770077
aF2.76118597780827
aF0.0
aF-0.09924568919590579
aF18.97759448194453
aF-0.2681778101926973
aF0.02174682340113239
aF3.9368559834611134
aF-0.1844936720545132
aF0.016102729373724055
aF5.928141755489174
aF-0.025
aF0.05712539293360906
aF-0.05
aF21.459081684481486
aF1.9961104713462825
aF7.784168283772045
aF14.65781359276712
aF1.7361688334782421
aF0.33745318290239684
aF0.12083614277757324
aF0.033333151305047944
aF-0.05
aF21.500057376756722
aF-0.5320417836333795
aF-0.029989782186259042
aF12.422278985362391
aF0.40143794856120796
aF-0.05
aF-0.2988924849322044
aF2.6062504541618496
aF9.972469065101306
aF0.0
aF19.381888835600428
aF0.405861021677287
aF-0.0999999744271204
aF0.30904867220608107
aF-0.062345957537679686
aF21.322779015089235
aF0.0032126987144115472
aF0.11298567039441186
aF-0.17441384297046605
aF-0.1890083702005082
aF-0.1999919820413373
aF19.205554658196537
aF-0.08679152655567453
aF0.1869775526255678
aF-0.01847545440767215
aF0.1476527683838932
aF0.20231516477990225
aF1.1691483181317506
aF21.33011829704164
aF-0.26481718964403816
aF-0.2721396668037185
aF-0.06249999999992306
aF-0.05
aF3.0499667481364616
aF-0.42233727169944
aF4.988185156708622
aF-0.1998972941183778
aF-0.1136697679115147
aF-0.05
aF-0.1810897277249861
aF0.8350404084757589
aF7.60130647361245
aF11.763000728555866
aF8.881784197001253e-17
aF0.08184800483325394
aF0.37876663519195636
aF0.36751357781444116
aF3.393284662687172
aF17.61632461417782
aF0.4078596780083174
aF7.1694488915418
aF0.171372889640483
aF0.4552347744795552
aF0.09501862966572971
aF1.0775276340491566
aF1.6831015989477365
aF-0.16821703217613582
aF-0.24999994315222124
aF4.832405622671398
aF-0.05
aF-0.8445629570254732
aF21.42976473752819
aF-0.005609119476848452
aF-0.23455123978852518
aF-0.09999999999938682
aF8.805408860554937
aF0.7727060544738757
aF0.07094452966572973
aF20.519603291477022
aF0.47015146255727763
aF0.0
aF-0.1
aF20.45234635145956
aF0.0019668486029628804
aF22.147693338668205
aF8.45574627363541
aF-0.049999999999346824
aF-0.22346324710806706
aF0.14001910415567598
aF-0.042924897878506695
aF-0.31195090811586057
aF-0.0015634311432815044
aF0.7545146817606555
aF-0.05
aF-0.6671175604698318
aF1.5543122344752193e-16
aF0.12435879581970613
aF0.2974247101287797
aF22.147693338668205
aF0.1529370759089903
aF-0.006611188484084388
aF6.044707127122941
aF0.9151501115951578
aF6.600437526770736
aF0.03587341171183386
aF14.088837011855318
aF0.6987170020129955
aF-0.05
aF5.53193666144001
aF0.9816694083864026
aF0.02906006010071773
aF0.7021188280964624
aF0.07863753841586142
aF4.726497544413868
aF0.04345969423243605
aF-0.48482684971740025
aF-0.0656703829582754
aF2.2279003267751234
aF-0.08306519706544316
aF1.5718626677843277
aF-0.05
aF-0.07055048317183048
aF21.60626954621683
aF-0.24818237703521268
aF2.282895506579338
aF-0.1
aF13.41502540681899
aF-0.12326725057552645
aF0.7083536153096937
aF0.005265486618539022
aF1.9130240691727274
aF-0.05
aF-0.18894638047625545
aF0.2595293340309856
aF-0.05
aF6.956153934087728
aF0.001959907767935664
aF0.058986308013210836
aF-0.2681778101926973
aF8.366042252089208
aF-0.14998029487933257
aF2.633982088436573
aF-0.06562308717857528
aF22.147693338668205
aF-0.12489903403862809
aF-0.1258714911622335
aF0.1927539143148033
aF-0.010144862500640804
aF-0.27825281775395827
aF-0.029989782186259042
aF-0.15000000000000002
aF0.06909267966572971
aF2.0447241461373764
aF2.696315370350674
aF-0.09999999970348769
aF-0.5769843903129399
aF-0.12354824536479814
aF0.15297579265125627
aF4.486132449083947
aF0.7345018040760783
aF-0.000889133151452215
aF-0.05
aF21.529373356410776
aF-0.2277245334436009
aF-0.03849845617578089
aF-0.18351175124034064
aF-0.04999999999999999
aF0.7578609104886747
aF-0.4497756321864705
aF-0.1
aF-0.05
aF0.23960125877459626
aF-0.05
aF-0.04986345118064918
aF-0.34826747599562685
aF0.0
aF0.0
aF-0.0062453452052740315
aF-0.05
aF-0.14951830378174188
aF-0.1719171409830515
aF13.11710583740777
aF9.009872041054555
aF0.0
aF0.5108457367281432
aF-0.10490552120495572
aF-0.05
aF-0.05
asVmu
p9
F0.0
sb.